target datalayout = "e-m:e-p270:32:32-p271:32:32-p272:64:64-i64:64-i128:128-f80:128-n8:16:32:64-S128"
target triple = "x86_64-unknown-linux-gnu"

%"class.llvh::StringRef" = type { ptr, i64 }

; Function Attrs: mustprogress nounwind uwtable
define hidden noundef i32 @_ZN4llvh2cl19generic_parser_base10findOptionENS_9StringRefE(ptr noundef nonnull align 8 dereferenceable(16) %this, ptr %Name.coerce0, i64 %Name.coerce1) #0 align 2 {
entry:
  %retval.i = alloca i32, align 4
  %Lhs.addr.i = alloca ptr, align 8
  %Rhs.addr.i = alloca ptr, align 8
  %Length.addr.i = alloca i64, align 8
  %RHS.i7 = alloca %"class.llvh::StringRef", align 8
  %this.addr.i = alloca ptr, align 8
  %LHS.i = alloca %"class.llvh::StringRef", align 8
  %RHS.i = alloca %"class.llvh::StringRef", align 8
  %agg.tmp.i = alloca %"class.llvh::StringRef", align 8
  %retval = alloca i32, align 4
  %Name = alloca %"class.llvh::StringRef", align 8
  %this.addr = alloca ptr, align 8
  %e = alloca i32, align 4
  %i = alloca i32, align 4
  %agg.tmp = alloca %"class.llvh::StringRef", align 8
  %agg.tmp5 = alloca %"class.llvh::StringRef", align 8
  %0 = getelementptr inbounds { ptr, i64 }, ptr %Name, i32 0, i32 0
  store ptr %Name.coerce0, ptr %0, align 8
  %1 = getelementptr inbounds { ptr, i64 }, ptr %Name, i32 0, i32 1
  store i64 %Name.coerce1, ptr %1, align 8
  store ptr %this, ptr %this.addr, align 8
  %this1 = load ptr, ptr %this.addr, align 8
  %vtable = load ptr, ptr %this1, align 8
  %vfn = getelementptr inbounds ptr, ptr %vtable, i64 2
  %2 = load ptr, ptr %vfn, align 8
  %call = call noundef i32 %2(ptr noundef nonnull align 8 dereferenceable(16) %this1)
  store i32 %call, ptr %e, align 4
  store i32 0, ptr %i, align 4
  br label %for.cond

for.cond:                                         ; preds = %for.inc, %entry
  %3 = load i32, ptr %i, align 4
  %4 = load i32, ptr %e, align 4
  %cmp = icmp ne i32 %3, %4
  br i1 %cmp, label %for.body, label %for.end

for.body:                                         ; preds = %for.cond
  %5 = load i32, ptr %i, align 4
  %vtable2 = load ptr, ptr %this1, align 8
  %vfn3 = getelementptr inbounds ptr, ptr %vtable2, i64 3
  %6 = load ptr, ptr %vfn3, align 8
  %call4 = call { ptr, i64 } %6(ptr noundef nonnull align 8 dereferenceable(16) %this1, i32 noundef %5)
  %7 = getelementptr inbounds { ptr, i64 }, ptr %agg.tmp, i32 0, i32 0
  %8 = extractvalue { ptr, i64 } %call4, 0
  store ptr %8, ptr %7, align 8
  %9 = getelementptr inbounds { ptr, i64 }, ptr %agg.tmp, i32 0, i32 1
  %10 = extractvalue { ptr, i64 } %call4, 1
  store i64 %10, ptr %9, align 8
  call void @llvm.memcpy.p0.p0.i64(ptr align 8 %agg.tmp5, ptr align 8 %Name, i64 16, i1 false)
  %11 = getelementptr inbounds { ptr, i64 }, ptr %agg.tmp, i32 0, i32 0
  %12 = load ptr, ptr %11, align 8
  %13 = getelementptr inbounds { ptr, i64 }, ptr %agg.tmp, i32 0, i32 1
  %14 = load i64, ptr %13, align 8
  %15 = getelementptr inbounds { ptr, i64 }, ptr %agg.tmp5, i32 0, i32 0
  %16 = load ptr, ptr %15, align 8
  %17 = getelementptr inbounds { ptr, i64 }, ptr %agg.tmp5, i32 0, i32 1
  %18 = load i64, ptr %17, align 8
  store ptr %12, ptr %LHS.i, align 8
  %19 = getelementptr inbounds { ptr, i64 }, ptr %LHS.i, i32 0, i32 1
  store i64 %14, ptr %19, align 8
  store ptr %16, ptr %RHS.i, align 8
  %20 = getelementptr inbounds { ptr, i64 }, ptr %RHS.i, i32 0, i32 1
  store i64 %18, ptr %20, align 8
  call void @llvm.memcpy.p0.p0.i64(ptr align 8 %agg.tmp.i, ptr align 8 %RHS.i, i64 16, i1 false)
  %21 = load ptr, ptr %agg.tmp.i, align 8
  %22 = getelementptr inbounds { ptr, i64 }, ptr %agg.tmp.i, i32 0, i32 1
  %23 = load i64, ptr %22, align 8
  store ptr %21, ptr %RHS.i7, align 8
  %24 = getelementptr inbounds { ptr, i64 }, ptr %RHS.i7, i32 0, i32 1
  store i64 %23, ptr %24, align 8
  store ptr %LHS.i, ptr %this.addr.i, align 8
  %this1.i = load ptr, ptr %this.addr.i, align 8
  %Length.i = getelementptr inbounds %"class.llvh::StringRef", ptr %this1.i, i32 0, i32 1
  %25 = load i64, ptr %Length.i, align 8
  %Length2.i = getelementptr inbounds %"class.llvh::StringRef", ptr %RHS.i7, i32 0, i32 1
  %26 = load i64, ptr %Length2.i, align 8
  %cmp.i = icmp eq i64 %25, %26
  br i1 %cmp.i, label %land.rhs.i, label %_ZNK4llvh9StringRef6equalsES0_.exit

land.rhs.i:                                       ; preds = %for.body
  %27 = load ptr, ptr %this1.i, align 8
  %28 = load ptr, ptr %RHS.i7, align 8
  %Length4.i = getelementptr inbounds %"class.llvh::StringRef", ptr %RHS.i7, i32 0, i32 1
  %29 = load i64, ptr %Length4.i, align 8
  store ptr %27, ptr %Lhs.addr.i, align 8
  store ptr %28, ptr %Rhs.addr.i, align 8
  store i64 %29, ptr %Length.addr.i, align 8
  %30 = load i64, ptr %Length.addr.i, align 8
  %cmp.i9 = icmp eq i64 %30, 0
  br i1 %cmp.i9, label %if.then.i, label %if.end.i

if.then.i:                                        ; preds = %land.rhs.i
  store i32 0, ptr %retval.i, align 4
  br label %_ZN4llvh9StringRef13compareMemoryEPKcS2_m.exit

if.end.i:                                         ; preds = %land.rhs.i
  %31 = load ptr, ptr %Lhs.addr.i, align 8
  %32 = load ptr, ptr %Rhs.addr.i, align 8
  %33 = load i64, ptr %Length.addr.i, align 8
  %call.i = call i32 @memcmp(ptr noundef %31, ptr noundef %32, i64 noundef %33) #14
  store i32 %call.i, ptr %retval.i, align 4
  br label %_ZN4llvh9StringRef13compareMemoryEPKcS2_m.exit

_ZN4llvh9StringRef13compareMemoryEPKcS2_m.exit:   ; preds = %if.end.i, %if.then.i
  %34 = load i32, ptr %retval.i, align 4
  %cmp5.i = icmp eq i32 %34, 0
  br label %_ZNK4llvh9StringRef6equalsES0_.exit

_ZNK4llvh9StringRef6equalsES0_.exit:              ; preds = %_ZN4llvh9StringRef13compareMemoryEPKcS2_m.exit, %for.body
  %35 = phi i1 [ false, %for.body ], [ %cmp5.i, %_ZN4llvh9StringRef13compareMemoryEPKcS2_m.exit ]
  br i1 %35, label %if.then, label %if.end

if.then:                                          ; preds = %_ZNK4llvh9StringRef6equalsES0_.exit
  %36 = load i32, ptr %i, align 4
  store i32 %36, ptr %retval, align 4
  br label %return

if.end:                                           ; preds = %_ZNK4llvh9StringRef6equalsES0_.exit
  br label %for.inc

for.inc:                                          ; preds = %if.end
  %37 = load i32, ptr %i, align 4
  %inc = add i32 %37, 1
  store i32 %inc, ptr %i, align 4
  br label %for.cond, !llvm.loop !29

for.end:                                          ; preds = %for.cond
  %38 = load i32, ptr %e, align 4
  store i32 %38, ptr %retval, align 4
  br label %return

return:                                           ; preds = %for.end, %if.then
  %39 = load i32, ptr %retval, align 4
  ret i32 %39
}