; Function Attrs: mustprogress nounwind uwtable
define hidden noundef i32 @_ZN4llvh2cl19generic_parser_base10findOptionENS_9StringRefE(ptr noundef nonnull align 8 dereferenceable(16) %this, ptr nocapture readonly %Name.coerce0, i64 %Name.coerce1) local_unnamed_addr #0 align 2 {
entry:
  %Name.coerce1.fr = freeze i64 %Name.coerce1
  %vtable = load ptr, ptr %this, align 8
  %vfn = getelementptr inbounds i8, ptr %vtable, i64 16
  %0 = load ptr, ptr %vfn, align 8
  %call = tail call noundef i32 %0(ptr noundef nonnull align 8 dereferenceable(16) %this) #27
  %cmp.not9 = icmp eq i32 %call, 0
  br i1 %cmp.not9, label %return, label %for.body.lr.ph

for.body.lr.ph:                                   ; preds = %entry
  %cmp.i9 = icmp eq i64 %Name.coerce1.fr, 0
  br i1 %cmp.i9, label %for.body.us, label %for.body

for.body.us:                                      ; preds = %for.body.lr.ph, %for.inc.us
  %i.010.us = phi i32 [ %inc.us, %for.inc.us ], [ 0, %for.body.lr.ph ]
  %vtable2.us = load ptr, ptr %this, align 8
  %vfn3.us = getelementptr inbounds i8, ptr %vtable2.us, i64 24
  %1 = load ptr, ptr %vfn3.us, align 8
  %call4.us = tail call { ptr, i64 } %1(ptr noundef nonnull align 8 dereferenceable(16) %this, i32 noundef %i.010.us) #27
  %2 = extractvalue { ptr, i64 } %call4.us, 1
  %cmp.i.us = icmp eq i64 %2, 0
  br i1 %cmp.i.us, label %return, label %for.inc.us

for.inc.us:                                       ; preds = %for.body.us
  %inc.us = add nuw i32 %i.010.us, 1
  %cmp.not.us = icmp eq i32 %inc.us, %call
  br i1 %cmp.not.us, label %return, label %for.body.us, !llvm.loop !158

for.body:                                         ; preds = %for.body.lr.ph, %for.inc
  %i.010 = phi i32 [ %inc, %for.inc ], [ 0, %for.body.lr.ph ]
  %vtable2 = load ptr, ptr %this, align 8
  %vfn3 = getelementptr inbounds i8, ptr %vtable2, i64 24
  %3 = load ptr, ptr %vfn3, align 8
  %call4 = tail call { ptr, i64 } %3(ptr noundef nonnull align 8 dereferenceable(16) %this, i32 noundef %i.010) #27
  %4 = extractvalue { ptr, i64 } %call4, 1
  %cmp.i = icmp eq i64 %4, %Name.coerce1.fr
  br i1 %cmp.i, label %land.rhs.i, label %for.inc

land.rhs.i:                                       ; preds = %for.body
  %5 = extractvalue { ptr, i64 } %call4, 0
  %bcmp = tail call i32 @bcmp(ptr %5, ptr %Name.coerce0, i64 %Name.coerce1.fr)
  %cmp5.i = icmp eq i32 %bcmp, 0
  br i1 %cmp5.i, label %return, label %for.inc

for.inc:                                          ; preds = %land.rhs.i, %for.body
  %inc = add nuw i32 %i.010, 1
  %cmp.not = icmp eq i32 %inc, %call
  br i1 %cmp.not, label %return, label %for.body, !llvm.loop !158

return:                                           ; preds = %land.rhs.i, %for.inc, %for.inc.us, %for.body.us, %entry
  %retval.0 = phi i32 [ 0, %entry ], [ %i.010.us, %for.body.us ], [ %call, %for.inc.us ], [ %call, %for.inc ], [ %i.010, %land.rhs.i ]
  ret i32 %retval.0
}